target datalayout = "e-m:e-p270:32:32-p271:32:32-p272:64:64-i64:64-i128:128-f80:128-n8:16:32:64-S128"
target triple = "x86_64-unknown-linux-gnu"

%"class.google::protobuf::DynamicMessage" = type <{ %"class.google::protobuf::Message", ptr, %"class.google::protobuf::internal::CachedSize", [4 x i8] }>
%"class.google::protobuf::Message" = type { %"class.google::protobuf::MessageLite" }
%"class.google::protobuf::MessageLite" = type { ptr, %"class.google::protobuf::internal::InternalMetadata" }
%"class.google::protobuf::internal::InternalMetadata" = type { i64 }
%"class.google::protobuf::internal::CachedSize" = type { i32 }
%"struct.google::protobuf::DynamicMessageFactory::TypeInfo" = type <{ i32, i32, i32, i32, ptr, ptr, ptr, %"class.std::unique_ptr", %"class.std::unique_ptr", %"class.std::unique_ptr.2", ptr, i32, [4 x i8] }>
%"class.std::unique_ptr" = type { %"struct.std::__uniq_ptr_data" }
%"struct.std::__uniq_ptr_data" = type { %"class.std::__uniq_ptr_impl" }
%"class.std::__uniq_ptr_impl" = type { %"class.std::tuple" }
%"class.std::tuple" = type { %"struct.std::_Tuple_impl" }
%"struct.std::_Tuple_impl" = type { %"struct.std::_Head_base.1" }
%"struct.std::_Head_base.1" = type { ptr }
%"class.std::unique_ptr.2" = type { %"struct.std::__uniq_ptr_data.3" }
%"struct.std::__uniq_ptr_data.3" = type { %"class.std::__uniq_ptr_impl.4" }
%"class.std::__uniq_ptr_impl.4" = type { %"class.std::tuple.5" }
%"class.std::tuple.5" = type { %"struct.std::_Tuple_impl.6" }
%"struct.std::_Tuple_impl.6" = type { %"struct.std::_Head_base.9" }
%"struct.std::_Head_base.9" = type { ptr }

@_ZTVN6google8protobuf7MessageE = external unnamed_addr constant { [13 x ptr] }, align 8

; Function Attrs: mustprogress nounwind uwtable
define linkonce_odr hidden void @_ZN6google8protobuf8internal16InternalMetadataC2Ev(ptr noundef nonnull align 8 dereferenceable(8) %this) unnamed_addr #5 comdat align 2 {
entry:
  %this.addr = alloca ptr, align 8
  store ptr %this, ptr %this.addr, align 8
  %this1 = load ptr, ptr %this.addr, align 8
  %ptr_ = getelementptr inbounds %"class.google::protobuf::internal::InternalMetadata", ptr %this1, i32 0, i32 0
  store i64 0, ptr %ptr_, align 8
  ret void
}

; Function Attrs: mustprogress nounwind uwtable
define linkonce_odr hidden void @_ZN6google8protobuf11MessageLiteD2Ev(ptr noundef nonnull align 8 dereferenceable(16) %this) unnamed_addr #5 comdat align 2 {
entry:
  %this.addr = alloca ptr, align 8
  store ptr %this, ptr %this.addr, align 8
  ret void
}

; Function Attrs: mustprogress uwtable
define linkonce_odr hidden void @_ZN6google8protobuf11MessageLiteC2Ev(ptr noundef nonnull align 8 dereferenceable(16) %this) unnamed_addr #4 comdat align 2 {
entry:
  %this.addr = alloca ptr, align 8
  store ptr %this, ptr %this.addr, align 8
  %this1 = load ptr, ptr %this.addr, align 8
  store ptr getelementptr inbounds ({ [12 x ptr] }, ptr @_ZTVN6google8protobuf11MessageLiteE, i32 0, i32 0, i32 2), ptr %this1, align 8
  %_internal_metadata_ = getelementptr inbounds %"class.google::protobuf::MessageLite", ptr %this1, i32 0, i32 1
  call void @_ZN6google8protobuf8internal16InternalMetadataC2Ev(ptr noundef nonnull align 8 dereferenceable(8) %_internal_metadata_)
  ret void
}

; Function Attrs: mustprogress nounwind uwtable
define linkonce_odr hidden void @_ZN6google8protobuf7MessageD2Ev(ptr noundef nonnull align 8 dereferenceable(16) %this) unnamed_addr #5 comdat align 2 {
entry:
  %this.addr = alloca ptr, align 8
  store ptr %this, ptr %this.addr, align 8
  %this1 = load ptr, ptr %this.addr, align 8
  call void @_ZN6google8protobuf11MessageLiteD2Ev(ptr noundef nonnull align 8 dereferenceable(16) %this1) #3
  ret void
}

; Function Attrs: mustprogress nounwind uwtable
define linkonce_odr hidden void @_ZN6google8protobuf8internal10CachedSizeC2Ei(ptr noundef nonnull align 4 dereferenceable(4) %this, i32 noundef %desired) unnamed_addr #5 comdat align 2 {
entry:
  %this.addr = alloca ptr, align 8
  %desired.addr = alloca i32, align 4
  store ptr %this, ptr %this.addr, align 8
  store i32 %desired, ptr %desired.addr, align 4
  %this1 = load ptr, ptr %this.addr, align 8
  %atom_ = getelementptr inbounds %"class.google::protobuf::internal::CachedSize", ptr %this1, i32 0, i32 0
  %0 = load i32, ptr %desired.addr, align 4
  store i32 %0, ptr %atom_, align 4
  ret void
}

; Function Attrs: mustprogress uwtable
define linkonce_odr hidden void @_ZN6google8protobuf7MessageC2Ev(ptr noundef nonnull align 8 dereferenceable(16) %this) unnamed_addr #4 comdat align 2 {
entry:
  %this.addr = alloca ptr, align 8
  store ptr %this, ptr %this.addr, align 8
  %this1 = load ptr, ptr %this.addr, align 8
  call void @_ZN6google8protobuf11MessageLiteC2Ev(ptr noundef nonnull align 8 dereferenceable(16) %this1)
  store ptr getelementptr inbounds ({ [13 x ptr] }, ptr @_ZTVN6google8protobuf7MessageE, i32 0, i32 0, i32 2), ptr %this1, align 8
  ret void
}

; Function Attrs: mustprogress uwtable
define hidden void @_ZN6google8protobuf14DynamicMessageC2EPNS0_21DynamicMessageFactory8TypeInfoEb(ptr noundef nonnull align 8 dereferenceable(32) %this, ptr noundef %type_info, i1 noundef zeroext %lock_factory) unnamed_addr #4 align 2 personality ptr @__gxx_personality_v0 {
entry:
  %this.addr = alloca ptr, align 8
  %type_info.addr = alloca ptr, align 8
  %lock_factory.addr = alloca i8, align 1
  %exn.slot = alloca ptr, align 8
  %ehselector.slot = alloca i32, align 4
  store ptr %this, ptr %this.addr, align 8
  store ptr %type_info, ptr %type_info.addr, align 8
  %frombool = zext i1 %lock_factory to i8
  store i8 %frombool, ptr %lock_factory.addr, align 1
  %this1 = load ptr, ptr %this.addr, align 8
  call void @_ZN6google8protobuf7MessageC2Ev(ptr noundef nonnull align 8 dereferenceable(16) %this1)
  store ptr getelementptr inbounds ({ [13 x ptr] }, ptr @_ZTVN6google8protobuf14DynamicMessageE, i32 0, i32 0, i32 2), ptr %this1, align 8
  %type_info_ = getelementptr inbounds %"class.google::protobuf::DynamicMessage", ptr %this1, i32 0, i32 1
  %0 = load ptr, ptr %type_info.addr, align 8
  store ptr %0, ptr %type_info_, align 8
  %cached_byte_size_ = getelementptr inbounds %"class.google::protobuf::DynamicMessage", ptr %this1, i32 0, i32 2
  call void @_ZN6google8protobuf8internal10CachedSizeC2Ei(ptr noundef nonnull align 4 dereferenceable(4) %cached_byte_size_, i32 noundef 0) #3
  %1 = load ptr, ptr %type_info.addr, align 8
  %prototype = getelementptr inbounds %"struct.google::protobuf::DynamicMessageFactory::TypeInfo", ptr %1, i32 0, i32 10
  store ptr %this1, ptr %prototype, align 8
  %2 = load i8, ptr %lock_factory.addr, align 1
  %tobool = trunc i8 %2 to i1
  invoke void @_ZN6google8protobuf14DynamicMessage10SharedCtorEb(ptr noundef nonnull align 8 dereferenceable(32) %this1, i1 noundef zeroext %tobool)
          to label %invoke.cont unwind label %lpad

invoke.cont:                                      ; preds = %entry
  ret void

lpad:                                             ; preds = %entry
  %3 = landingpad { ptr, i32 }
          cleanup
  %4 = extractvalue { ptr, i32 } %3, 0
  store ptr %4, ptr %exn.slot, align 8
  %5 = extractvalue { ptr, i32 } %3, 1
  store i32 %5, ptr %ehselector.slot, align 4
  call void @_ZN6google8protobuf7MessageD2Ev(ptr noundef nonnull align 8 dereferenceable(16) %this1) #3
  br label %eh.resume

eh.resume:                                        ; preds = %lpad
  %exn = load ptr, ptr %exn.slot, align 8
  %sel = load i32, ptr %ehselector.slot, align 4
  %lpad.val = insertvalue { ptr, i32 } poison, ptr %exn, 0
  %lpad.val2 = insertvalue { ptr, i32 } %lpad.val, i32 %sel, 1
  resume { ptr, i32 } %lpad.val2
}