; Function Attrs: mustprogress uwtable
define hidden void @_ZN6google8protobuf14DynamicMessageC2EPNS0_21DynamicMessageFactory8TypeInfoEb(ptr noundef nonnull align 8 dereferenceable(32) %this, ptr noundef %type_info, i1 noundef zeroext %lock_factory) unnamed_addr #3 align 2 personality ptr @__gxx_personality_v0 {
entry:
  %_internal_metadata_.i.i = getelementptr inbounds i8, ptr %this, i64 8
  store i64 0, ptr %_internal_metadata_.i.i, align 8
  store ptr getelementptr inbounds ({ [13 x ptr] }, ptr @_ZTVN6google8protobuf14DynamicMessageE, i64 0, i32 0, i64 2), ptr %this, align 8
  %type_info_ = getelementptr inbounds i8, ptr %this, i64 16
  store ptr %type_info, ptr %type_info_, align 8
  %cached_byte_size_ = getelementptr inbounds i8, ptr %this, i64 24
  store i32 0, ptr %cached_byte_size_, align 8
  %prototype = getelementptr inbounds i8, ptr %type_info, i64 64
  store ptr %this, ptr %prototype, align 8
  tail call void @_ZN6google8protobuf14DynamicMessage10SharedCtorEb(ptr noundef nonnull align 8 dereferenceable(32) %this, i1 noundef zeroext %lock_factory)
  ret void
}